target datalayout = "e-m:e-p270:32:32-p271:32:32-p272:64:64-i64:64-i128:128-f80:128-n8:16:32:64-S128"
target triple = "x86_64-pc-linux-gnu"

@.str.17 = private unnamed_addr constant [22 x i8] c"string slice too long\00", align 1

; Function Attrs: nounwind uwtable
define internal i64 @getendpos(ptr noundef %0, i32 noundef %1, i64 noundef %2, i64 noundef %3) #0 {
  %5 = alloca i64, align 8
  %6 = alloca ptr, align 8
  %7 = alloca i32, align 4
  %8 = alloca i64, align 8
  %9 = alloca i64, align 8
  %10 = alloca i64, align 8
  %11 = alloca i32, align 4
  store ptr %0, ptr %6, align 8, !tbaa !4
  store i32 %1, ptr %7, align 4, !tbaa !15
  store i64 %2, ptr %8, align 8, !tbaa !11
  store i64 %3, ptr %9, align 8, !tbaa !13
  call void @llvm.lifetime.start.p0(i64 8, ptr %10) #11
  %12 = load ptr, ptr %6, align 8, !tbaa !4
  %13 = load i32, ptr %7, align 4, !tbaa !15
  %14 = load i64, ptr %8, align 8, !tbaa !11
  %15 = call i64 @luaL_optinteger(ptr noundef %12, i32 noundef %13, i64 noundef %14)
  store i64 %15, ptr %10, align 8, !tbaa !11
  %16 = load i64, ptr %10, align 8, !tbaa !11
  %17 = load i64, ptr %9, align 8, !tbaa !13
  %18 = icmp sgt i64 %16, %17
  br i1 %18, label %19, label %21

19:                                               ; preds = %4
  %20 = load i64, ptr %9, align 8, !tbaa !13
  store i64 %20, ptr %5, align 8
  store i32 1, ptr %11, align 4
  br label %37

21:                                               ; preds = %4
  %22 = load i64, ptr %10, align 8, !tbaa !11
  %23 = icmp sge i64 %22, 0
  br i1 %23, label %24, label %26

24:                                               ; preds = %21
  %25 = load i64, ptr %10, align 8, !tbaa !11
  store i64 %25, ptr %5, align 8
  store i32 1, ptr %11, align 4
  br label %37

26:                                               ; preds = %21
  %27 = load i64, ptr %10, align 8, !tbaa !11
  %28 = load i64, ptr %9, align 8, !tbaa !13
  %29 = sub nsw i64 0, %28
  %30 = icmp slt i64 %27, %29
  br i1 %30, label %31, label %32

31:                                               ; preds = %26
  store i64 0, ptr %5, align 8
  store i32 1, ptr %11, align 4
  br label %37

32:                                               ; preds = %26
  %33 = load i64, ptr %9, align 8, !tbaa !13
  %34 = load i64, ptr %10, align 8, !tbaa !11
  %35 = add i64 %33, %34
  %36 = add i64 %35, 1
  store i64 %36, ptr %5, align 8
  store i32 1, ptr %11, align 4
  br label %37

37:                                               ; preds = %32, %31, %24, %19
  call void @llvm.lifetime.end.p0(i64 8, ptr %10) #11
  %38 = load i64, ptr %5, align 8
  ret i64 %38
}

; Function Attrs: nounwind uwtable
define internal i64 @posrelatI(i64 noundef %0, i64 noundef %1) #0 {
  %3 = alloca i64, align 8
  %4 = alloca i64, align 8
  %5 = alloca i64, align 8
  store i64 %0, ptr %4, align 8, !tbaa !11
  store i64 %1, ptr %5, align 8, !tbaa !13
  %6 = load i64, ptr %4, align 8, !tbaa !11
  %7 = icmp sgt i64 %6, 0
  br i1 %7, label %8, label %10

8:                                                ; preds = %2
  %9 = load i64, ptr %4, align 8, !tbaa !11
  store i64 %9, ptr %3, align 8
  br label %25

10:                                               ; preds = %2
  %11 = load i64, ptr %4, align 8, !tbaa !11
  %12 = icmp eq i64 %11, 0
  br i1 %12, label %13, label %14

13:                                               ; preds = %10
  store i64 1, ptr %3, align 8
  br label %25

14:                                               ; preds = %10
  %15 = load i64, ptr %4, align 8, !tbaa !11
  %16 = load i64, ptr %5, align 8, !tbaa !13
  %17 = sub nsw i64 0, %16
  %18 = icmp slt i64 %15, %17
  br i1 %18, label %19, label %20

19:                                               ; preds = %14
  store i64 1, ptr %3, align 8
  br label %25

20:                                               ; preds = %14
  %21 = load i64, ptr %5, align 8, !tbaa !13
  %22 = load i64, ptr %4, align 8, !tbaa !11
  %23 = add i64 %21, %22
  %24 = add i64 %23, 1
  store i64 %24, ptr %3, align 8
  br label %25

25:                                               ; preds = %20, %19, %13, %8
  %26 = load i64, ptr %3, align 8
  ret i64 %26
}

; Function Attrs: nounwind uwtable
define internal i32 @str_byte(ptr noundef %0) #0 {
  %2 = alloca i32, align 4
  %3 = alloca ptr, align 8
  %4 = alloca i64, align 8
  %5 = alloca ptr, align 8
  %6 = alloca i64, align 8
  %7 = alloca i64, align 8
  %8 = alloca i64, align 8
  %9 = alloca i32, align 4
  %10 = alloca i32, align 4
  %11 = alloca i32, align 4
  store ptr %0, ptr %3, align 8, !tbaa !4
  call void @llvm.lifetime.start.p0(i64 8, ptr %4) #11
  call void @llvm.lifetime.start.p0(i64 8, ptr %5) #11
  %12 = load ptr, ptr %3, align 8, !tbaa !4
  %13 = call ptr @luaL_checklstring(ptr noundef %12, i32 noundef 1, ptr noundef %4)
  store ptr %13, ptr %5, align 8, !tbaa !9
  call void @llvm.lifetime.start.p0(i64 8, ptr %6) #11
  %14 = load ptr, ptr %3, align 8, !tbaa !4
  %15 = call i64 @luaL_optinteger(ptr noundef %14, i32 noundef 2, i64 noundef 1)
  store i64 %15, ptr %6, align 8, !tbaa !11
  call void @llvm.lifetime.start.p0(i64 8, ptr %7) #11
  %16 = load i64, ptr %6, align 8, !tbaa !11
  %17 = load i64, ptr %4, align 8, !tbaa !13
  %18 = call i64 @posrelatI(i64 noundef %16, i64 noundef %17)
  store i64 %18, ptr %7, align 8, !tbaa !13
  call void @llvm.lifetime.start.p0(i64 8, ptr %8) #11
  %19 = load ptr, ptr %3, align 8, !tbaa !4
  %20 = load i64, ptr %6, align 8, !tbaa !11
  %21 = load i64, ptr %4, align 8, !tbaa !13
  %22 = call i64 @getendpos(ptr noundef %19, i32 noundef 3, i64 noundef %20, i64 noundef %21)
  store i64 %22, ptr %8, align 8, !tbaa !13
  call void @llvm.lifetime.start.p0(i64 4, ptr %9) #11
  call void @llvm.lifetime.start.p0(i64 4, ptr %10) #11
  %23 = load i64, ptr %7, align 8, !tbaa !13
  %24 = load i64, ptr %8, align 8, !tbaa !13
  %25 = icmp ugt i64 %23, %24
  br i1 %25, label %26, label %27

26:                                               ; preds = %1
  store i32 0, ptr %2, align 4
  store i32 1, ptr %11, align 4
  br label %69

27:                                               ; preds = %1
  %28 = load i64, ptr %8, align 8, !tbaa !13
  %29 = load i64, ptr %7, align 8, !tbaa !13
  %30 = sub i64 %28, %29
  %31 = icmp uge i64 %30, 2147483647
  %32 = zext i1 %31 to i32
  %33 = icmp ne i32 %32, 0
  %34 = zext i1 %33 to i32
  %35 = sext i32 %34 to i64
  %36 = call i64 @llvm.expect.i64(i64 %35, i64 0)
  %37 = icmp ne i64 %36, 0
  br i1 %37, label %38, label %41

38:                                               ; preds = %27
  %39 = load ptr, ptr %3, align 8, !tbaa !4
  %40 = call i32 (ptr, ptr, ...) @luaL_error(ptr noundef %39, ptr noundef @.str.17)
  store i32 %40, ptr %2, align 4
  store i32 1, ptr %11, align 4
  br label %69

41:                                               ; preds = %27
  %42 = load i64, ptr %8, align 8, !tbaa !13
  %43 = load i64, ptr %7, align 8, !tbaa !13
  %44 = sub i64 %42, %43
  %45 = trunc i64 %44 to i32
  %46 = add nsw i32 %45, 1
  store i32 %46, ptr %9, align 4, !tbaa !15
  %47 = load ptr, ptr %3, align 8, !tbaa !4
  %48 = load i32, ptr %9, align 4, !tbaa !15
  call void @luaL_checkstack(ptr noundef %47, i32 noundef %48, ptr noundef @.str.17)
  store i32 0, ptr %10, align 4, !tbaa !15
  br label %49

49:                                               ; preds = %64, %41
  %50 = load i32, ptr %10, align 4, !tbaa !15
  %51 = load i32, ptr %9, align 4, !tbaa !15
  %52 = icmp slt i32 %50, %51
  br i1 %52, label %53, label %67

53:                                               ; preds = %49
  %54 = load ptr, ptr %3, align 8, !tbaa !4
  %55 = load ptr, ptr %5, align 8, !tbaa !9
  %56 = load i64, ptr %7, align 8, !tbaa !13
  %57 = load i32, ptr %10, align 4, !tbaa !15
  %58 = zext i32 %57 to i64
  %59 = add i64 %56, %58
  %60 = sub i64 %59, 1
  %61 = getelementptr inbounds nuw i8, ptr %55, i64 %60
  %62 = load i8, ptr %61, align 1, !tbaa !17
  %63 = zext i8 %62 to i64
  call void @lua_pushinteger(ptr noundef %54, i64 noundef %63)
  br label %64

64:                                               ; preds = %53
  %65 = load i32, ptr %10, align 4, !tbaa !15
  %66 = add nsw i32 %65, 1
  store i32 %66, ptr %10, align 4, !tbaa !15
  br label %49

67:                                               ; preds = %49
  %68 = load i32, ptr %9, align 4, !tbaa !15
  store i32 %68, ptr %2, align 4
  store i32 1, ptr %11, align 4
  br label %69

69:                                               ; preds = %67, %38, %26
  call void @llvm.lifetime.end.p0(i64 4, ptr %10) #11
  call void @llvm.lifetime.end.p0(i64 4, ptr %9) #11
  call void @llvm.lifetime.end.p0(i64 8, ptr %8) #11
  call void @llvm.lifetime.end.p0(i64 8, ptr %7) #11
  call void @llvm.lifetime.end.p0(i64 8, ptr %6) #11
  call void @llvm.lifetime.end.p0(i64 8, ptr %5) #11
  call void @llvm.lifetime.end.p0(i64 8, ptr %4) #11
  %70 = load i32, ptr %2, align 4
  ret i32 %70
}