; Function Attrs: nounwind uwtable
define internal i32 @str_byte(ptr noundef %0) #0 {
  %2 = alloca i64, align 8
  call void @llvm.lifetime.start.p0(i64 8, ptr nonnull %2) #12
  %3 = call ptr @luaL_checklstring(ptr noundef %0, i32 noundef 1, ptr noundef nonnull %2) #12
  %4 = call i64 @luaL_optinteger(ptr noundef %0, i32 noundef 2, i64 noundef 1) #12
  %5 = load i64, ptr %2, align 8, !tbaa !4
  %6 = icmp sgt i64 %4, 0
  br i1 %6, label %posrelatI.exit, label %7

7:                                                ; preds = %1
  %8 = icmp eq i64 %4, 0
  %9 = sub nsw i64 0, %5
  %10 = icmp slt i64 %4, %9
  %or.cond.i = select i1 %8, i1 true, i1 %10
  br i1 %or.cond.i, label %posrelatI.exit, label %11

11:                                               ; preds = %7
  %12 = add i64 %5, 1
  %13 = add i64 %12, %4
  br label %posrelatI.exit

posrelatI.exit:                                   ; preds = %1, %7, %11
  %.0.i = phi i64 [ %13, %11 ], [ %4, %1 ], [ 1, %7 ]
  %14 = call i64 @luaL_optinteger(ptr noundef %0, i32 noundef 3, i64 noundef %4) #12
  %15 = icmp sgt i64 %14, %5
  br i1 %15, label %getendpos.exit, label %16

16:                                               ; preds = %posrelatI.exit
  %17 = icmp sgt i64 %14, -1
  br i1 %17, label %getendpos.exit, label %18

18:                                               ; preds = %16
  %19 = sub nsw i64 0, %5
  %20 = icmp slt i64 %14, %19
  br i1 %20, label %getendpos.exit, label %21

21:                                               ; preds = %18
  %22 = add i64 %5, 1
  %23 = add i64 %22, %14
  br label %getendpos.exit

getendpos.exit:                                   ; preds = %posrelatI.exit, %16, %18, %21
  %.0.i27 = phi i64 [ %23, %21 ], [ %5, %posrelatI.exit ], [ %14, %16 ], [ 0, %18 ]
  %24 = icmp ugt i64 %.0.i, %.0.i27
  br i1 %24, label %.loopexit, label %25

25:                                               ; preds = %getendpos.exit
  %26 = sub nuw i64 %.0.i27, %.0.i
  %27 = icmp ugt i64 %26, 2147483646
  br i1 %27, label %28, label %.lr.ph, !prof !8

28:                                               ; preds = %25
  %29 = call i32 (ptr, ptr, ...) @luaL_error(ptr noundef %0, ptr noundef nonnull @.str.17) #12
  br label %.loopexit

.lr.ph:                                           ; preds = %25
  %30 = trunc nuw nsw i64 %26 to i32
  %31 = add nuw nsw i32 %30, 1
  call void @luaL_checkstack(ptr noundef %0, i32 noundef %31, ptr noundef nonnull @.str.17) #12
  %32 = getelementptr i8, ptr %3, i64 %.0.i
  %invariant.gep = getelementptr i8, ptr %32, i64 -1
  br label %33

33:                                               ; preds = %.lr.ph, %33
  %indvars.iv = phi i64 [ 0, %.lr.ph ], [ %indvars.iv.next, %33 ]
  %gep = getelementptr i8, ptr %invariant.gep, i64 %indvars.iv
  %34 = load i8, ptr %gep, align 1, !tbaa !9
  %35 = zext i8 %34 to i64
  call void @lua_pushinteger(ptr noundef %0, i64 noundef %35) #12
  %indvars.iv.next = add nuw nsw i64 %indvars.iv, 1
  %exitcond.not = icmp eq i64 %indvars.iv, %26
  br i1 %exitcond.not, label %.loopexit, label %33

.loopexit:                                        ; preds = %33, %getendpos.exit, %28
  %.022 = phi i32 [ %29, %28 ], [ 0, %getendpos.exit ], [ %31, %33 ]
  call void @llvm.lifetime.end.p0(i64 8, ptr nonnull %2) #12
  ret i32 %.022
}